target datalayout = "e-m:e-p270:32:32-p271:32:32-p272:64:64-i64:64-i128:128-f80:128-n8:16:32:64-S128"
target triple = "x86_64-pc-linux-gnu"

%struct.redisServer = type { i32, i64, ptr, ptr, ptr, i32, i32, i32, i32, i32, ptr, ptr, ptr, ptr, ptr, i32, i32, i32, i32, i64, i32, i32, i32, i32, ptr, i32, i32, [41 x i8], i32, i64, i32, i32, i32, ptr, ptr, i32, i32, i64, ptr, ptr, ptr, ptr, [2 x i32], i32, i32, i32, i32, i32, i32, [16 x ptr], i32, ptr, ptr, i32, [8 x %struct.connListener], i32, %struct.connListener, ptr, ptr, ptr, ptr, ptr, ptr, ptr, ptr, ptr, ptr, i32, ptr, i32, ptr, [3 x %struct.pause_event], [256 x i8], ptr, i64, i32, i32, [128 x i32], i32, i32, i64, i32, i32, i32, i32, i32, i64, i64, i64, i64, i64, i64, i64, i64, i64, i64, double, i64, i64, i64, i64, i64, i64, i64, i64, i64, i64, i64, i64, i64, i64, i64, i64, i64, i64, i64, i64, i64, double, i64, i64, i64, i64, i64, ptr, i64, i64, i64, %struct.malloc_stats, i64, i64, i64, i64, i64, i64, i64, i64, i64, i64, i64, i64, double, [4 x i64], i64, i64, i64, i64, [128 x i64], [128 x i64], i64, i64, [7 x %struct.anon], i64, i64, i64, i64, i64, i64, [4 x %struct.durationStats], i32, i32, i32, i32, i32, i32, i32, i32, i32, i32, i32, i32, i64, i32, i32, i32, i32, i64, i64, i32, i32, i32, i32, i32, ptr, [3 x %struct.clientBufferLimitsConfig], i32, i32, i32, ptr, i32, i32, i32, i32, i32, i32, ptr, ptr, i32, i32, i64, i64, i64, i64, i64, i32, i32, ptr, i32, i32, i64, i64, i64, i64, i64, i32, i32, i64, i32, i32, i32, i32, i32, i32, i32, i32, ptr, i32, i64, i64, i64, i64, i32, ptr, i32, ptr, i32, i32, i32, i64, i64, i64, i64, i32, i32, i32, i32, i32, i32, ptr, i32, i32, ptr, i32, i32, i32, [2 x i32], i32, %struct.redisOpArray, i32, ptr, i32, ptr, i32, i32, i32, i32, i32, i32, i32, [41 x i8], [41 x i8], i64, i64, i64, i64, i32, i32, ptr, i64, i64, %struct.replDataBuf, i64, i64, i32, i32, i32, i32, i32, i32, i32, i32, i32, i64, ptr, i64, ptr, ptr, ptr, i32, i32, ptr, ptr, i32, i32, i32, i64, i64, i64, i64, ptr, ptr, i32, ptr, i64, i32, i32, i32, i64, i32, i32, i32, i32, ptr, i32, i32, [41 x i8], i64, i32, ptr, i32, i32, i64, i64, i32, i32, i32, i32, i32, i64, [3 x i32], i32, i32, i32, [10 x i32], ptr, ptr, i32, i64, ptr, ptr, i32, i32, i32, i32, i64, i64, i64, i64, i64, i64, i64, i64, i64, i64, i32, i32, i64, i64, i32, i64, i64, i64, i64, i64, ptr, ptr, i32, ptr, i32, i32, i32, i32, i64, i64, ptr, ptr, i32, i32, i32, i32, i32, ptr, ptr, ptr, i32, i32, i32, i32, i32, i32, i32, i64, i32, i32, i64, i32, i32, i32, i32, i32, i32, i32, i64, ptr, ptr, i64, ptr, i32, %struct.aclInfo, i32, i64, i32, i32, i32, %struct.redisTLSContextConfig, ptr, ptr, ptr, ptr, ptr, i64, i32, ptr, i32, i32, i32, i64, i32, ptr }
%struct.connListener = type { [16 x i32], i32, ptr, i32, i32, ptr, ptr }
%struct.pause_event = type { i32, i64 }
%struct.malloc_stats = type { i64, i64, i64, i64, i64, i64, i64, i64, i64, i64, i64 }
%struct.anon = type { i64, i64, [16 x i64], i32 }
%struct.durationStats = type { i64, i64, i64 }
%struct.clientBufferLimitsConfig = type { i64, i64, i64 }
%struct.redisOpArray = type { ptr, i32, i32 }
%struct.replDataBuf = type { ptr, i64, i64, i64, i64 }
%struct.aclInfo = type { i64, i64, i64, i64 }
%struct.redisTLSContextConfig = type { ptr, ptr, ptr, ptr, ptr, ptr, ptr, ptr, ptr, ptr, ptr, ptr, i32, i32, i32, i32 }
%struct.aofInfo = type { ptr, i64, i32, i64, i64 }
%struct.aofManifest = type { ptr, ptr, ptr, i64, i64, i32 }
%struct.list = type { ptr, ptr, ptr, ptr, ptr, i64 }
%struct.listNode = type { ptr, ptr, ptr }

@.str.1 = private unnamed_addr constant [6 x i8] c"aof.c\00", align 1
@server = external global %struct.redisServer, align 8
@.str.55 = private unnamed_addr constant [28 x i8] c"server.aof_manifest != NULL\00", align 1
@.str.64 = private unnamed_addr constant [28 x i8] c"server.aof_state != AOF_OFF\00", align 1
@.str.65 = private unnamed_addr constant [31 x i8] c"Fail to fsync the AOF file: %s\00", align 1

; Function Attrs: nounwind uwtable
define dso_local i32 @persistAofManifest(ptr noundef %0) #0 {
  %2 = alloca i32, align 4
  %3 = alloca ptr, align 8
  %4 = alloca ptr, align 8
  %5 = alloca i32, align 4
  store ptr %0, ptr %3, align 8, !tbaa !5
  %6 = load ptr, ptr %3, align 8, !tbaa !5
  %7 = getelementptr inbounds nuw %struct.aofManifest, ptr %6, i32 0, i32 5
  %8 = load i32, ptr %7, align 8, !tbaa !75
  %9 = icmp eq i32 %8, 0
  br i1 %9, label %10, label %11

10:                                               ; preds = %1
  store i32 0, ptr %2, align 4
  br label %24

11:                                               ; preds = %1
  call void @llvm.lifetime.start.p0(i64 8, ptr %4) #12
  %12 = load ptr, ptr %3, align 8, !tbaa !5
  %13 = call ptr @getAofManifestAsString(ptr noundef %12)
  store ptr %13, ptr %4, align 8, !tbaa !18
  call void @llvm.lifetime.start.p0(i64 4, ptr %5) #12
  %14 = load ptr, ptr %4, align 8, !tbaa !18
  %15 = call i32 @writeAofManifestFile(ptr noundef %14)
  store i32 %15, ptr %5, align 4, !tbaa !22
  %16 = load ptr, ptr %4, align 8, !tbaa !18
  call void @sdsfree(ptr noundef %16)
  %17 = load i32, ptr %5, align 4, !tbaa !22
  %18 = icmp eq i32 %17, 0
  br i1 %18, label %19, label %22

19:                                               ; preds = %11
  %20 = load ptr, ptr %3, align 8, !tbaa !5
  %21 = getelementptr inbounds nuw %struct.aofManifest, ptr %20, i32 0, i32 5
  store i32 0, ptr %21, align 8, !tbaa !75
  br label %22

22:                                               ; preds = %19, %11
  %23 = load i32, ptr %5, align 4, !tbaa !22
  store i32 %23, ptr %2, align 4
  call void @llvm.lifetime.end.p0(i64 4, ptr %5) #12
  call void @llvm.lifetime.end.p0(i64 8, ptr %4) #12
  br label %24

24:                                               ; preds = %22, %10
  %25 = load i32, ptr %2, align 4
  ret i32 %25
}

; Function Attrs: nounwind uwtable
define dso_local void @updateCurIncrAofEndOffset() #0 {
  %1 = alloca ptr, align 8
  %2 = load i32, ptr getelementptr inbounds nuw (%struct.redisServer, ptr @server, i32 0, i32 193), align 8, !tbaa !84
  %3 = icmp ne i32 %2, 1
  br i1 %3, label %4, label %5

4:                                                ; preds = %0
  br label %40

5:                                                ; preds = %0
  %6 = load ptr, ptr getelementptr inbounds nuw (%struct.redisServer, ptr @server, i32 0, i32 225), align 8, !tbaa !65
  %7 = icmp ne ptr %6, null
  %8 = xor i1 %7, true
  %9 = xor i1 %8, true
  %10 = zext i1 %9 to i32
  %11 = sext i32 %10 to i64
  %12 = call i64 @llvm.expect.i64(i64 %11, i64 1)
  %13 = icmp ne i64 %12, 0
  br i1 %13, label %14, label %15

14:                                               ; preds = %5
  br label %17

15:                                               ; preds = %5
  call void @_serverAssert(ptr noundef @.str.55, ptr noundef @.str.1, i32 noundef 869)
  call void @abort() #14
  unreachable

16:                                               ; No predecessors!
  br label %17

17:                                               ; preds = %16, %14
  %18 = load ptr, ptr getelementptr inbounds nuw (%struct.redisServer, ptr @server, i32 0, i32 225), align 8, !tbaa !65
  %19 = getelementptr inbounds nuw %struct.aofManifest, ptr %18, i32 0, i32 1
  %20 = load ptr, ptr %19, align 8, !tbaa !25
  %21 = getelementptr inbounds nuw %struct.list, ptr %20, i32 0, i32 5
  %22 = load i64, ptr %21, align 8, !tbaa !77
  %23 = icmp eq i64 %22, 0
  br i1 %23, label %24, label %25

24:                                               ; preds = %17
  br label %40

25:                                               ; preds = %17
  call void @llvm.lifetime.start.p0(i64 8, ptr %1) #12
  %26 = load ptr, ptr getelementptr inbounds nuw (%struct.redisServer, ptr @server, i32 0, i32 225), align 8, !tbaa !65
  %27 = getelementptr inbounds nuw %struct.aofManifest, ptr %26, i32 0, i32 1
  %28 = load ptr, ptr %27, align 8, !tbaa !25
  %29 = getelementptr inbounds nuw %struct.list, ptr %28, i32 0, i32 1
  %30 = load ptr, ptr %29, align 8, !tbaa !96
  %31 = getelementptr inbounds nuw %struct.listNode, ptr %30, i32 0, i32 2
  %32 = load ptr, ptr %31, align 8, !tbaa !60
  store ptr %32, ptr %1, align 8, !tbaa !5
  %33 = load i64, ptr getelementptr inbounds nuw (%struct.redisServer, ptr @server, i32 0, i32 271), align 8, !tbaa !78
  %34 = load ptr, ptr %1, align 8, !tbaa !5
  %35 = getelementptr inbounds nuw %struct.aofInfo, ptr %34, i32 0, i32 4
  store i64 %33, ptr %35, align 8, !tbaa !14
  %36 = load ptr, ptr getelementptr inbounds nuw (%struct.redisServer, ptr @server, i32 0, i32 225), align 8, !tbaa !65
  %37 = getelementptr inbounds nuw %struct.aofManifest, ptr %36, i32 0, i32 5
  store i32 1, ptr %37, align 8, !tbaa !75
  %38 = load ptr, ptr getelementptr inbounds nuw (%struct.redisServer, ptr @server, i32 0, i32 225), align 8, !tbaa !65
  %39 = call i32 @persistAofManifest(ptr noundef %38)
  call void @llvm.lifetime.end.p0(i64 8, ptr %1) #12
  br label %40

40:                                               ; preds = %25, %24, %4
  ret void
}

; Function Attrs: nounwind uwtable
define dso_local void @stopAppendOnly() #0 {
  %1 = alloca i64, align 8
  %2 = load i32, ptr getelementptr inbounds nuw (%struct.redisServer, ptr @server, i32 0, i32 193), align 8, !tbaa !84
  %3 = icmp ne i32 %2, 0
  %4 = xor i1 %3, true
  %5 = xor i1 %4, true
  %6 = zext i1 %5 to i32
  %7 = sext i32 %6 to i64
  %8 = call i64 @llvm.expect.i64(i64 %7, i64 1)
  %9 = icmp ne i64 %8, 0
  br i1 %9, label %10, label %11

10:                                               ; preds = %0
  br label %13

11:                                               ; preds = %0
  call void @_serverAssert(ptr noundef @.str.64, ptr noundef @.str.1, i32 noundef 1006)
  call void @abort() #14
  unreachable

12:                                               ; No predecessors!
  br label %13

13:                                               ; preds = %12, %10
  call void @flushAppendOnlyFile(i32 noundef 1)
  %14 = load i32, ptr getelementptr inbounds nuw (%struct.redisServer, ptr @server, i32 0, i32 207), align 8, !tbaa !79
  %15 = call i32 @fdatasync(i32 noundef %14)
  %16 = icmp eq i32 %15, -1
  br i1 %16, label %17, label %27

17:                                               ; preds = %13
  br label %18

18:                                               ; preds = %17
  %19 = load i32, ptr getelementptr inbounds nuw (%struct.redisServer, ptr @server, i32 0, i32 159), align 8, !tbaa !67
  %20 = icmp slt i32 3, %19
  br i1 %20, label %21, label %22

21:                                               ; preds = %18
  br label %26

22:                                               ; preds = %18
  %23 = call ptr @__errno_location() #15
  %24 = load i32, ptr %23, align 4, !tbaa !22
  %25 = call ptr @strerror(i32 noundef %24) #12
  call void (i32, ptr, ...) @_serverLog(i32 noundef 3, ptr noundef @.str.65, ptr noundef %25)
  br label %26

26:                                               ; preds = %22, %21
  br label %29

27:                                               ; preds = %13
  %28 = load i64, ptr getelementptr inbounds nuw (%struct.redisServer, ptr @server, i32 0, i32 369), align 8, !tbaa !94
  store i64 %28, ptr getelementptr inbounds nuw (%struct.redisServer, ptr @server, i32 0, i32 210), align 8, !tbaa !95
  br label %29

29:                                               ; preds = %27, %26
  %30 = load i32, ptr getelementptr inbounds nuw (%struct.redisServer, ptr @server, i32 0, i32 207), align 8, !tbaa !79
  %31 = call i32 @close(i32 noundef %30)
  call void @updateCurIncrAofEndOffset()
  store i32 -1, ptr getelementptr inbounds nuw (%struct.redisServer, ptr @server, i32 0, i32 207), align 8, !tbaa !79
  store i32 -1, ptr getelementptr inbounds nuw (%struct.redisServer, ptr @server, i32 0, i32 208), align 4, !tbaa !103
  store i32 0, ptr getelementptr inbounds nuw (%struct.redisServer, ptr @server, i32 0, i32 193), align 8, !tbaa !84
  store i32 0, ptr getelementptr inbounds nuw (%struct.redisServer, ptr @server, i32 0, i32 205), align 4, !tbaa !104
  store i64 0, ptr getelementptr inbounds nuw (%struct.redisServer, ptr @server, i32 0, i32 202), align 8, !tbaa !85
  store i64 0, ptr getelementptr inbounds nuw (%struct.redisServer, ptr @server, i32 0, i32 203), align 8, !tbaa !86
  store i64 -1, ptr getelementptr inbounds nuw (%struct.redisServer, ptr @server, i32 0, i32 274), align 8, !tbaa !105
  store i64 0, ptr %1, align 8, !tbaa !68
  %32 = load i64, ptr %1, align 8
  store atomic i64 %32, ptr getelementptr inbounds nuw (%struct.redisServer, ptr @server, i32 0, i32 273) monotonic, align 8
  call void @killAppendOnlyChild()
  %33 = load ptr, ptr getelementptr inbounds nuw (%struct.redisServer, ptr @server, i32 0, i32 206), align 8, !tbaa !106
  call void @sdsfree(ptr noundef %33)
  %34 = call ptr @sdsempty()
  store ptr %34, ptr getelementptr inbounds nuw (%struct.redisServer, ptr @server, i32 0, i32 206), align 8, !tbaa !106
  ret void
}