; Function Attrs: nounwind uwtable
define dso_local void @stopAppendOnly() local_unnamed_addr #0 {
  %1 = load i32, ptr getelementptr inbounds nuw (i8, ptr @server, i64 6520), align 8, !tbaa !79
  %.not = icmp eq i32 %1, 0
  br i1 %.not, label %2, label %3, !prof !5

2:                                                ; preds = %0
  tail call void @_serverAssert(ptr noundef nonnull @.str.64, ptr noundef nonnull @.str.1, i32 noundef 1006) #20
  tail call void @abort() #21
  unreachable

3:                                                ; preds = %0
  tail call void @flushAppendOnlyFile(i32 noundef 1)
  %4 = load i32, ptr getelementptr inbounds nuw (i8, ptr @server, i64 6608), align 8, !tbaa !75
  %5 = tail call i32 @fdatasync(i32 noundef %4) #20
  %6 = icmp eq i32 %5, -1
  br i1 %6, label %7, label %14

7:                                                ; preds = %3
  %8 = load i32, ptr getelementptr inbounds nuw (i8, ptr @server, i64 6288), align 8, !tbaa !65
  %9 = icmp sgt i32 %8, 3
  br i1 %9, label %16, label %10

10:                                               ; preds = %7
  %11 = tail call ptr @__errno_location() #22
  %12 = load i32, ptr %11, align 4, !tbaa !21
  %13 = tail call ptr @strerror(i32 noundef %12) #20
  tail call void (i32, ptr, ...) @_serverLog(i32 noundef 3, ptr noundef nonnull @.str.65, ptr noundef %13) #20
  br label %16

14:                                               ; preds = %3
  %15 = load i64, ptr getelementptr inbounds nuw (i8, ptr @server, i64 7808), align 8, !tbaa !88
  store i64 %15, ptr getelementptr inbounds nuw (i8, ptr @server, i64 6624), align 8, !tbaa !89
  br label %16

16:                                               ; preds = %10, %7, %14
  %17 = load i32, ptr getelementptr inbounds nuw (i8, ptr @server, i64 6608), align 8, !tbaa !75
  %18 = tail call i32 @close(i32 noundef %17) #20
  %19 = load i32, ptr getelementptr inbounds nuw (i8, ptr @server, i64 6520), align 8, !tbaa !79
  %.not.i = icmp eq i32 %19, 1
  br i1 %.not.i, label %20, label %updateCurIncrAofEndOffset.exit

20:                                               ; preds = %16
  %21 = load ptr, ptr getelementptr inbounds nuw (i8, ptr @server, i64 6704), align 8, !tbaa !63
  %.not1.i = icmp eq ptr %21, null
  br i1 %.not1.i, label %22, label %23, !prof !5

22:                                               ; preds = %20
  tail call void @_serverAssert(ptr noundef nonnull @.str.55, ptr noundef nonnull @.str.1, i32 noundef 869) #20
  tail call void @abort() #21
  unreachable

23:                                               ; preds = %20
  %24 = getelementptr inbounds nuw i8, ptr %21, i64 8
  %25 = load ptr, ptr %24, align 8, !tbaa !24
  %26 = getelementptr inbounds nuw i8, ptr %25, i64 40
  %27 = load i64, ptr %26, align 8, !tbaa !73
  %28 = icmp eq i64 %27, 0
  br i1 %28, label %updateCurIncrAofEndOffset.exit, label %29

29:                                               ; preds = %23
  %30 = getelementptr inbounds nuw i8, ptr %25, i64 8
  %31 = load ptr, ptr %30, align 8, !tbaa !90
  %32 = getelementptr inbounds nuw i8, ptr %31, i64 16
  %33 = load ptr, ptr %32, align 8, !tbaa !58
  %34 = load i64, ptr getelementptr inbounds nuw (i8, ptr @server, i64 7064), align 8, !tbaa !74
  %35 = getelementptr inbounds nuw i8, ptr %33, i64 32
  store i64 %34, ptr %35, align 8, !tbaa !17
  %36 = getelementptr inbounds nuw i8, ptr %21, i64 40
  store i32 1, ptr %36, align 8, !tbaa !70
  %37 = tail call ptr @getAofManifestAsString(ptr noundef nonnull %21)
  %38 = tail call i32 @writeAofManifestFile(ptr noundef %37)
  tail call void @sdsfree(ptr noundef %37) #20
  %39 = icmp eq i32 %38, 0
  br i1 %39, label %40, label %updateCurIncrAofEndOffset.exit

40:                                               ; preds = %29
  store i32 0, ptr %36, align 8, !tbaa !70
  br label %updateCurIncrAofEndOffset.exit

updateCurIncrAofEndOffset.exit:                   ; preds = %16, %23, %29, %40
  store i32 -1, ptr getelementptr inbounds nuw (i8, ptr @server, i64 6608), align 8, !tbaa !75
  store i32 -1, ptr getelementptr inbounds nuw (i8, ptr @server, i64 6612), align 4, !tbaa !97
  store i32 0, ptr getelementptr inbounds nuw (i8, ptr @server, i64 6520), align 8, !tbaa !79
  store i32 0, ptr getelementptr inbounds nuw (i8, ptr @server, i64 6596), align 4, !tbaa !98
  tail call void @llvm.memset.p0.i64(ptr noundef nonnull align 8 dereferenceable(16) getelementptr inbounds nuw (i8, ptr @server, i64 6576), i8 0, i64 16, i1 false)
  store i64 -1, ptr getelementptr inbounds nuw (i8, ptr @server, i64 7088), align 8, !tbaa !99
  store atomic i64 0, ptr getelementptr inbounds nuw (i8, ptr @server, i64 7080) monotonic, align 8
  tail call void @killAppendOnlyChild()
  %41 = load ptr, ptr getelementptr inbounds nuw (i8, ptr @server, i64 6600), align 8, !tbaa !100
  tail call void @sdsfree(ptr noundef %41) #20
  %42 = tail call ptr @sdsempty() #20
  store ptr %42, ptr getelementptr inbounds nuw (i8, ptr @server, i64 6600), align 8, !tbaa !100
  ret void
}